(itopogen
Network
p0
(dp1
S'connections'
p2
(lp3
(itopogen
Connection
p4
(dp5
S'destNode'
p6
S'router:1'
p7
sS'destInterface'
p8
(itopogen
Interface
p9
(dp10
S'id'
p11
S'interface:1#0'
p12
sbsS'identifier'
p13
S'channel:0-1'
p14
sS'sourceNode'
p15
S'consumer:0'
p16
sS'sourceInterface'
p17
(itopogen
Interface
p18
(dp19
g11
S'interface:0#1'
p20
sbsba(itopogen
Connection
p21
(dp22
g6
S'router:2'
p23
sg8
(itopogen
Interface
p24
(dp25
g11
S'interface:2#1'
p26
sbsg13
S'channel:1-2'
p27
sg15
g7
sg17
(itopogen
Interface
p28
(dp29
g11
S'interface:1#2'
p30
sbsba(itopogen
Connection
p31
(dp32
g6
S'router:3'
p33
sg8
(itopogen
Interface
p34
(dp35
g11
S'interface:3#2'
p36
sbsg13
S'channel:2-3'
p37
sg15
g23
sg17
(itopogen
Interface
p38
(dp39
g11
S'interface:2#3'
p40
sbsba(itopogen
Connection
p41
(dp42
g6
S'producer:4'
p43
sg8
(itopogen
Interface
p44
(dp45
g11
S'interface:4#3'
p46
sbsg13
S'channel:3-4'
p47
sg15
g33
sg17
(itopogen
Interface
p48
(dp49
g11
S'interface:3#4'
p50
sbsbasS'channels'
p51
(lp52
(itopogen
Channel
p53
(dp54
g11
S'channel:0-1'
p55
sS'dataRate'
p56
I100
sba(itopogen
Channel
p57
(dp58
g11
S'channel:1-2'
p59
sg56
I100
sba(itopogen
Channel
p60
(dp61
g11
S'channel:2-3'
p62
sg56
I100
sba(itopogen
Channel
p63
(dp64
g11
S'channel:3-4'
p65
sg56
I100
sbasS'nodes'
p66
(dp67
I0
ccopy_reg
_reconstructor
p68
(ctopogen
Consumer
p69
c__builtin__
object
p70
Ntp71
Rp72
(dp73
S'index'
p74
I0
sg11
g16
sS'interfaceMap'
p75
(dp76
I1
g18
ssS'point'
p77
(itopogen
Point
p78
(dp79
S'xCoord'
p80
I0
sS'yCoord'
p81
I0
sbsbsI1
g68
(ctopogen
Router
p82
g70
Ntp83
Rp84
(dp85
g74
I1
sS'capacity'
p86
I1000000
sg11
g7
sg75
(dp87
I0
g9
sI2
g28
ssg77
(itopogen
Point
p88
(dp89
g80
I0
sg81
I0
sbsbsI2
g68
(g82
g70
Ntp90
Rp91
(dp92
g74
I2
sg86
I1000000
sg11
g23
sg75
(dp93
I1
g24
sI3
g38
ssg77
(itopogen
Point
p94
(dp95
g80
I0
sg81
I0
sbsbsI3
g68
(g82
g70
Ntp96
Rp97
(dp98
g74
I3
sg86
I1000000
sg11
g33
sg75
(dp99
I2
g34
sI4
g48
ssg77
(itopogen
Point
p100
(dp101
g80
I0
sg81
I0
sbsbsI4
g68
(ctopogen
Producer
p102
g70
Ntp103
Rp104
(dp105
S'prefixes'
p106
(lp107
S'lci:/test'
p108
asg74
I4
sg11
g43
sg75
(dp109
I3
g44
ssg77
(itopogen
Point
p110
(dp111
g80
I0
sg81
I0
sbsbssS'capacityDistribution'
p112
(lp113
I1000000
asb.