ccopy_reg
_reconstructor
p0
(ctopogen
Graph
p1
c__builtin__
object
p2
Ntp3
Rp4
(dp5
S'producerNodes'
p6
(lp7
I4
asS'graph'
p8
g0
(cnetworkx.classes.graph
Graph
p9
g2
Ntp10
Rp11
(dp12
S'node'
p13
(dp14
I0
(dp15
sI1
(dp16
sI2
(dp17
sI3
(dp18
sI4
(dp19
ssg8
(dp20
sS'edge'
p21
(dp22
I0
(dp23
I1
(dp24
ssI1
(dp25
I0
g24
sI2
(dp26
ssI2
(dp27
I1
g26
sI3
(dp28
ssI3
(dp29
I2
g28
sI4
(dp30
ssI4
(dp31
I3
g30
sssS'adj'
p32
g22
sbsS'routerNodes'
p33
(lp34
I1
aI2
aI3
asS'consumerNodes'
p35
(lp36
I0
asb.